; Function Attrs: mustprogress uwtable
define internal noundef ptr @"_ZNSt17_Function_handlerIFPN7rocksdb13MergeOperatorERKNSt7__cxx1112basic_stringIcSt11char_traitsIcESaIcEEEPSt10unique_ptrIS1_St14default_deleteIS1_EEPS8_EZNS0_4test19RegisterTestObjectsERNS0_13ObjectLibraryESA_E3$_1E9_M_invokeERKSt9_Any_dataSA_OSF_OSG_"(ptr nonnull readnone align 8 captures(none) %0, ptr noundef nonnull align 8 dereferenceable(32) %1, ptr noundef nonnull readonly align 8 captures(none) dereferenceable(8) %2, ptr nonnull readnone align 8 captures(none) %3) #7 align 2 personality ptr @__gxx_personality_v0 {
  %.val = load ptr, ptr %2, align 8, !tbaa !660
  %5 = tail call noalias noundef nonnull dereferenceable(64) ptr @_Znwm(i64 noundef 64) #37
  invoke void @_ZN7rocksdb4test22ChanglingMergeOperatorC2ERKNSt7__cxx1112basic_stringIcSt11char_traitsIcESaIcEEE(ptr noundef nonnull align 8 dereferenceable(64) %5, ptr noundef nonnull align 8 dereferenceable(32) %1)
          to label %6 unwind label %11

6:                                                ; preds = %4
  %7 = load ptr, ptr %.val, align 8, !tbaa !385
  store ptr %5, ptr %.val, align 8, !tbaa !385
  %.not.i.i.i.i.i = icmp eq ptr %7, null
  br i1 %.not.i.i.i.i.i, label %"_ZSt10__invoke_rIPN7rocksdb13MergeOperatorERZNS0_4test19RegisterTestObjectsERNS0_13ObjectLibraryERKNSt7__cxx1112basic_stringIcSt11char_traitsIcESaIcEEEE3$_1JSD_PSt10unique_ptrIS1_St14default_deleteIS1_EEPSB_EENSt9enable_ifIX16is_invocable_r_vIT_T0_DpT1_EESN_E4typeEOSO_DpOSP_.exit", label %_ZNKSt14default_deleteIN7rocksdb13MergeOperatorEEclEPS1_.exit.i.i.i.i.i

_ZNKSt14default_deleteIN7rocksdb13MergeOperatorEEclEPS1_.exit.i.i.i.i.i: ; preds = %6
  %8 = load ptr, ptr %7, align 8, !tbaa !25
  %9 = getelementptr inbounds nuw i8, ptr %8, i64 8
  %10 = load ptr, ptr %9, align 8
  tail call void %10(ptr noundef nonnull align 8 dereferenceable(32) %7) #34
  %.pre.i.i.i = load ptr, ptr %.val, align 8, !tbaa !385
  br label %"_ZSt10__invoke_rIPN7rocksdb13MergeOperatorERZNS0_4test19RegisterTestObjectsERNS0_13ObjectLibraryERKNSt7__cxx1112basic_stringIcSt11char_traitsIcESaIcEEEE3$_1JSD_PSt10unique_ptrIS1_St14default_deleteIS1_EEPSB_EENSt9enable_ifIX16is_invocable_r_vIT_T0_DpT1_EESN_E4typeEOSO_DpOSP_.exit"

11:                                               ; preds = %4
  %12 = landingpad { ptr, i32 }
          cleanup
  tail call void @_ZdlPvm(ptr noundef nonnull %5, i64 noundef 64) #33
  resume { ptr, i32 } %12

"_ZSt10__invoke_rIPN7rocksdb13MergeOperatorERZNS0_4test19RegisterTestObjectsERNS0_13ObjectLibraryERKNSt7__cxx1112basic_stringIcSt11char_traitsIcESaIcEEEE3$_1JSD_PSt10unique_ptrIS1_St14default_deleteIS1_EEPSB_EENSt9enable_ifIX16is_invocable_r_vIT_T0_DpT1_EESN_E4typeEOSO_DpOSP_.exit": ; preds = %6, %_ZNKSt14default_deleteIN7rocksdb13MergeOperatorEEclEPS1_.exit.i.i.i.i.i
  %13 = phi ptr [ %5, %6 ], [ %.pre.i.i.i, %_ZNKSt14default_deleteIN7rocksdb13MergeOperatorEEclEPS1_.exit.i.i.i.i.i ]
  ret ptr %13
}